; Function Attrs: mustprogress null_pointer_is_valid sspstrong uwtable
define void @_ZN23LBMLBTRUTransportDialog14setCaptureFileEP13_capture_file(ptr noundef align 8 captures(none) dereferenceable_or_null(112) %0, ptr noundef readnone captures(address_is_null) %1) local_unnamed_addr #0 align 2 {
  %3 = icmp eq ptr %1, null
  br i1 %3, label %4, label %13

4:                                                ; preds = %2
  %5 = getelementptr inbounds nuw i8, ptr %0, i64 56
  store ptr null, ptr %5, align 8
  %6 = getelementptr inbounds nuw i8, ptr %0, i64 40
  %7 = load ptr, ptr %6, align 8
  %8 = getelementptr inbounds nuw i8, ptr %7, i64 712
  %9 = load ptr, ptr %8, align 8
  tail call void @_ZN7QWidget10setEnabledEb(ptr noundef align 8 dereferenceable_or_null(40) %9, i1 noundef zeroext false)
  %10 = load ptr, ptr %6, align 8
  %11 = getelementptr inbounds nuw i8, ptr %10, i64 720
  %12 = load ptr, ptr %11, align 8
  tail call void @_ZN7QWidget10setEnabledEb(ptr noundef align 8 dereferenceable_or_null(40) %12, i1 noundef zeroext false)
  br label %13

13:                                               ; preds = %4, %2
  ret void
}